target datalayout = "e-m:e-p270:32:32-p271:32:32-p272:64:64-i64:64-i128:128-f80:128-n8:16:32:64-S128"
target triple = "x86_64-pc-linux-gnu"

%struct.strbuf = type { i64, i64, ptr }
%struct.ls_tree_options = type { i8, i32, i32, %struct.pathspec, ptr, ptr }
%struct.pathspec = type { i32, i8, i32, i32, ptr }

@strbuf_slopbuf = external global [0 x i8], align 1
@stdout = external global ptr, align 8
@.str.32 = private unnamed_addr constant [11 x i8] c"./strbuf.h\00", align 1
@.str.33 = private unnamed_addr constant [30 x i8] c"strbuf_setlen() beyond buffer\00", align 1
@__const.show_tree_name_only.sb = private unnamed_addr constant %struct.strbuf { i64 0, i64 0, ptr @strbuf_slopbuf }, align 8

; Function Attrs: inlinehint nounwind uwtable
define internal void @strbuf_setlen(ptr noundef %0, i64 noundef %1) #4 {
  %3 = alloca ptr, align 8
  %4 = alloca i64, align 8
  store ptr %0, ptr %3, align 8, !tbaa !57
  store i64 %1, ptr %4, align 8, !tbaa !64
  %5 = load i64, ptr %4, align 8, !tbaa !64
  %6 = load ptr, ptr %3, align 8, !tbaa !57
  %7 = getelementptr inbounds nuw %struct.strbuf, ptr %6, i32 0, i32 0
  %8 = load i64, ptr %7, align 8, !tbaa !73
  %9 = icmp ne i64 %8, 0
  br i1 %9, label %10, label %15

10:                                               ; preds = %2
  %11 = load ptr, ptr %3, align 8, !tbaa !57
  %12 = getelementptr inbounds nuw %struct.strbuf, ptr %11, i32 0, i32 0
  %13 = load i64, ptr %12, align 8, !tbaa !73
  %14 = sub i64 %13, 1
  br label %16

15:                                               ; preds = %2
  br label %16

16:                                               ; preds = %15, %10
  %17 = phi i64 [ %14, %10 ], [ 0, %15 ]
  %18 = icmp ugt i64 %5, %17
  br i1 %18, label %19, label %20

19:                                               ; preds = %16
  call void (ptr, i32, ptr, ...) @BUG_fl(ptr noundef @.str.32, i32 noundef 167, ptr noundef @.str.33) #10
  unreachable

20:                                               ; preds = %16
  %21 = load i64, ptr %4, align 8, !tbaa !64
  %22 = load ptr, ptr %3, align 8, !tbaa !57
  %23 = getelementptr inbounds nuw %struct.strbuf, ptr %22, i32 0, i32 1
  store i64 %21, ptr %23, align 8, !tbaa !63
  %24 = load ptr, ptr %3, align 8, !tbaa !57
  %25 = getelementptr inbounds nuw %struct.strbuf, ptr %24, i32 0, i32 2
  %26 = load ptr, ptr %25, align 8, !tbaa !61
  %27 = icmp ne ptr %26, @strbuf_slopbuf
  br i1 %27, label %28, label %34

28:                                               ; preds = %20
  %29 = load ptr, ptr %3, align 8, !tbaa !57
  %30 = getelementptr inbounds nuw %struct.strbuf, ptr %29, i32 0, i32 2
  %31 = load ptr, ptr %30, align 8, !tbaa !61
  %32 = load i64, ptr %4, align 8, !tbaa !64
  %33 = getelementptr inbounds nuw i8, ptr %31, i64 %32
  store i8 0, ptr %33, align 1, !tbaa !15
  br label %35

34:                                               ; preds = %20
  br label %35

35:                                               ; preds = %34, %28
  ret void
}

; Function Attrs: inlinehint nounwind uwtable
define internal void @strbuf_addstr(ptr noundef %0, ptr noundef %1) #4 {
  %3 = alloca ptr, align 8
  %4 = alloca ptr, align 8
  store ptr %0, ptr %3, align 8, !tbaa !57
  store ptr %1, ptr %4, align 8, !tbaa !11
  %5 = load ptr, ptr %3, align 8, !tbaa !57
  %6 = load ptr, ptr %4, align 8, !tbaa !11
  %7 = load ptr, ptr %4, align 8, !tbaa !11
  %8 = call i64 @strlen(ptr noundef %7) #11
  call void @strbuf_add(ptr noundef %5, ptr noundef %6, i64 noundef %8)
  ret void
}

; Function Attrs: inlinehint nounwind uwtable
define internal i32 @object_type(i32 noundef %0) #4 {
  %2 = alloca i32, align 4
  store i32 %0, ptr %2, align 4, !tbaa !4
  %3 = load i32, ptr %2, align 4, !tbaa !4
  %4 = and i32 %3, 61440
  %5 = icmp eq i32 %4, 16384
  br i1 %5, label %6, label %7

6:                                                ; preds = %1
  br label %12

7:                                                ; preds = %1
  %8 = load i32, ptr %2, align 4, !tbaa !4
  %9 = and i32 %8, 61440
  %10 = icmp eq i32 %9, 57344
  %11 = select i1 %10, i32 1, i32 3
  br label %12

12:                                               ; preds = %7, %6
  %13 = phi i32 [ 2, %6 ], [ %11, %7 ]
  ret i32 %13
}

; Function Attrs: nounwind uwtable
define internal i32 @show_tree_name_only(ptr noundef %0, ptr noundef %1, ptr noundef %2, i32 noundef %3, ptr noundef %4) #0 {
  %6 = alloca i32, align 4
  %7 = alloca ptr, align 8
  %8 = alloca ptr, align 8
  %9 = alloca ptr, align 8
  %10 = alloca i32, align 4
  %11 = alloca ptr, align 8
  %12 = alloca ptr, align 8
  %13 = alloca i32, align 4
  %14 = alloca i32, align 4
  %15 = alloca i64, align 8
  %16 = alloca i32, align 4
  %17 = alloca ptr, align 8
  %18 = alloca i32, align 4
  %19 = alloca %struct.strbuf, align 8
  %20 = alloca ptr, align 8
  store ptr %0, ptr %7, align 8, !tbaa !55
  store ptr %1, ptr %8, align 8, !tbaa !57
  store ptr %2, ptr %9, align 8, !tbaa !11
  store i32 %3, ptr %10, align 4, !tbaa !4
  store ptr %4, ptr %11, align 8, !tbaa !16
  call void @llvm.lifetime.start.p0(i64 8, ptr %12) #9
  %21 = load ptr, ptr %11, align 8, !tbaa !16
  store ptr %21, ptr %12, align 8, !tbaa !59
  call void @llvm.lifetime.start.p0(i64 4, ptr %13) #9
  call void @llvm.lifetime.start.p0(i64 4, ptr %14) #9
  call void @llvm.lifetime.start.p0(i64 8, ptr %15) #9
  %22 = load ptr, ptr %8, align 8, !tbaa !57
  %23 = getelementptr inbounds nuw %struct.strbuf, ptr %22, i32 0, i32 1
  %24 = load i64, ptr %23, align 8, !tbaa !63
  store i64 %24, ptr %15, align 8, !tbaa !64
  call void @llvm.lifetime.start.p0(i64 4, ptr %16) #9
  %25 = load i32, ptr %10, align 4, !tbaa !4
  %26 = call i32 @object_type(i32 noundef %25)
  store i32 %26, ptr %16, align 4, !tbaa !4
  call void @llvm.lifetime.start.p0(i64 8, ptr %17) #9
  %27 = load ptr, ptr %12, align 8, !tbaa !59
  %28 = load ptr, ptr %8, align 8, !tbaa !57
  %29 = load ptr, ptr %9, align 8, !tbaa !11
  %30 = load i32, ptr %16, align 4, !tbaa !4
  %31 = call i32 @show_tree_common(ptr noundef %27, ptr noundef %14, ptr noundef %28, ptr noundef %29, i32 noundef %30)
  store i32 %31, ptr %13, align 4, !tbaa !4
  %32 = load i32, ptr %13, align 4, !tbaa !4
  %33 = icmp sge i32 %32, 0
  br i1 %33, label %34, label %36

34:                                               ; preds = %5
  %35 = load i32, ptr %13, align 4, !tbaa !4
  store i32 %35, ptr %6, align 4
  store i32 1, ptr %18, align 4
  br label %68

36:                                               ; preds = %5
  %37 = load ptr, ptr %12, align 8, !tbaa !59
  %38 = getelementptr inbounds nuw %struct.ls_tree_options, ptr %37, i32 0, i32 4
  %39 = load ptr, ptr %38, align 8, !tbaa !33
  store ptr %39, ptr %17, align 8, !tbaa !11
  %40 = load ptr, ptr %8, align 8, !tbaa !57
  %41 = load ptr, ptr %9, align 8, !tbaa !11
  call void @strbuf_addstr(ptr noundef %40, ptr noundef %41)
  %42 = load ptr, ptr %12, align 8, !tbaa !59
  %43 = load i8, ptr %42, align 8
  %44 = and i8 %43, 1
  %45 = zext i8 %44 to i32
  %46 = icmp ne i32 %45, 0
  br i1 %46, label %47, label %58

47:                                               ; preds = %36
  call void @llvm.lifetime.start.p0(i64 24, ptr %19) #9
  call void @llvm.memcpy.p0.p0.i64(ptr align 8 %19, ptr align 8 @__const.show_tree_name_only.sb, i64 24, i1 false)
  call void @llvm.lifetime.start.p0(i64 8, ptr %20) #9
  %48 = load ptr, ptr %8, align 8, !tbaa !57
  %49 = getelementptr inbounds nuw %struct.strbuf, ptr %48, i32 0, i32 2
  %50 = load ptr, ptr %49, align 8, !tbaa !61
  %51 = load ptr, ptr %17, align 8, !tbaa !11
  %52 = call ptr @relative_path(ptr noundef %50, ptr noundef %51, ptr noundef %19)
  store ptr %52, ptr %20, align 8, !tbaa !11
  %53 = load ptr, ptr %20, align 8, !tbaa !11
  %54 = load ptr, ptr @stdout, align 8, !tbaa !67
  %55 = call i32 @fputs(ptr noundef %53, ptr noundef %54)
  %56 = load ptr, ptr @stdout, align 8, !tbaa !67
  %57 = call i32 @fputc(i32 noundef 0, ptr noundef %56)
  call void @strbuf_release(ptr noundef %19)
  call void @llvm.lifetime.end.p0(i64 8, ptr %20) #9
  call void @llvm.lifetime.end.p0(i64 24, ptr %19) #9
  br label %64

58:                                               ; preds = %36
  %59 = load ptr, ptr %8, align 8, !tbaa !57
  %60 = getelementptr inbounds nuw %struct.strbuf, ptr %59, i32 0, i32 2
  %61 = load ptr, ptr %60, align 8, !tbaa !61
  %62 = load ptr, ptr %17, align 8, !tbaa !11
  %63 = load ptr, ptr @stdout, align 8, !tbaa !67
  call void @write_name_quoted_relative(ptr noundef %61, ptr noundef %62, ptr noundef %63, i32 noundef 10)
  br label %64

64:                                               ; preds = %58, %47
  %65 = load ptr, ptr %8, align 8, !tbaa !57
  %66 = load i64, ptr %15, align 8, !tbaa !64
  call void @strbuf_setlen(ptr noundef %65, i64 noundef %66)
  %67 = load i32, ptr %14, align 4, !tbaa !4
  store i32 %67, ptr %6, align 4
  store i32 1, ptr %18, align 4
  br label %68

68:                                               ; preds = %64, %34
  call void @llvm.lifetime.end.p0(i64 8, ptr %17) #9
  call void @llvm.lifetime.end.p0(i64 4, ptr %16) #9
  call void @llvm.lifetime.end.p0(i64 8, ptr %15) #9
  call void @llvm.lifetime.end.p0(i64 4, ptr %14) #9
  call void @llvm.lifetime.end.p0(i64 4, ptr %13) #9
  call void @llvm.lifetime.end.p0(i64 8, ptr %12) #9
  %69 = load i32, ptr %6, align 4
  ret i32 %69
}