; Function Attrs: nounwind uwtable
define internal i32 @show_tree_name_only(ptr readnone captures(none) %0, ptr noundef %1, ptr noundef %2, i32 noundef %3, ptr noundef readonly captures(none) %4) #0 {
  %6 = alloca i32, align 4
  %7 = alloca %struct.strbuf, align 8
  call void @llvm.lifetime.start.p0(i64 4, ptr nonnull %6) #13
  %8 = getelementptr inbounds nuw i8, ptr %1, i64 8
  %9 = load i64, ptr %8, align 8, !tbaa !47
  %10 = and i32 %3, 61440
  %11 = icmp eq i32 %10, 16384
  %12 = icmp eq i32 %10, 57344
  %13 = select i1 %12, i32 1, i32 3
  %14 = select i1 %11, i32 2, i32 %13
  %15 = call fastcc i32 @show_tree_common(ptr noundef %4, ptr noundef %6, ptr noundef %1, ptr noundef %2, i32 noundef %14)
  %16 = icmp sgt i32 %15, -1
  br i1 %16, label %45, label %17

17:                                               ; preds = %5
  %18 = getelementptr inbounds nuw i8, ptr %4, i64 40
  %19 = load ptr, ptr %18, align 8, !tbaa !24
  %20 = tail call i64 @strlen(ptr noundef nonnull dereferenceable(1) %2) #15
  tail call void @strbuf_add(ptr noundef nonnull %1, ptr noundef nonnull %2, i64 noundef %20) #13
  %21 = load i8, ptr %4, align 8
  %22 = and i8 %21, 1
  %.not = icmp eq i8 %22, 0
  br i1 %.not, label %31, label %23

23:                                               ; preds = %17
  call void @llvm.lifetime.start.p0(i64 24, ptr nonnull %7) #13
  call void @llvm.memcpy.p0.p0.i64(ptr noundef nonnull align 8 dereferenceable(24) %7, ptr noundef nonnull align 8 dereferenceable(24) @__const.show_tree_fmt.sbuf, i64 24, i1 false)
  %24 = getelementptr inbounds nuw i8, ptr %1, i64 16
  %25 = load ptr, ptr %24, align 8, !tbaa !45
  %26 = call ptr @relative_path(ptr noundef %25, ptr noundef %19, ptr noundef nonnull %7) #13
  %27 = load ptr, ptr @stdout, align 8, !tbaa !55
  %28 = call i32 @fputs(ptr noundef %26, ptr noundef %27)
  %29 = load ptr, ptr @stdout, align 8, !tbaa !55
  %30 = call i32 @fputc(i32 noundef 0, ptr noundef %29)
  call void @strbuf_release(ptr noundef nonnull %7) #13
  call void @llvm.lifetime.end.p0(i64 24, ptr nonnull %7) #13
  br label %35

31:                                               ; preds = %17
  %32 = getelementptr inbounds nuw i8, ptr %1, i64 16
  %33 = load ptr, ptr %32, align 8, !tbaa !45
  %34 = load ptr, ptr @stdout, align 8, !tbaa !55
  tail call void @write_name_quoted_relative(ptr noundef %33, ptr noundef %19, ptr noundef %34, i32 noundef 10) #13
  br label %35

35:                                               ; preds = %31, %23
  %36 = load i64, ptr %1, align 8, !tbaa !51
  %spec.select.i = call i64 @llvm.usub.sat.i64(i64 %36, i64 1)
  %37 = icmp ugt i64 %9, %spec.select.i
  br i1 %37, label %38, label %39

38:                                               ; preds = %35
  call void (ptr, i32, ptr, ...) @BUG_fl(ptr noundef nonnull @.str.32, i32 noundef 167, ptr noundef nonnull @.str.33) #14
  unreachable

39:                                               ; preds = %35
  store i64 %9, ptr %8, align 8, !tbaa !47
  %40 = getelementptr inbounds nuw i8, ptr %1, i64 16
  %41 = load ptr, ptr %40, align 8, !tbaa !45
  %.not9.i = icmp eq ptr %41, @strbuf_slopbuf
  br i1 %.not9.i, label %strbuf_setlen.exit, label %42

42:                                               ; preds = %39
  %43 = getelementptr inbounds nuw i8, ptr %41, i64 %9
  store i8 0, ptr %43, align 1, !tbaa !8
  br label %strbuf_setlen.exit

strbuf_setlen.exit:                               ; preds = %39, %42
  %44 = load i32, ptr %6, align 4, !tbaa !4
  br label %45

45:                                               ; preds = %5, %strbuf_setlen.exit
  %.0 = phi i32 [ %44, %strbuf_setlen.exit ], [ %15, %5 ]
  call void @llvm.lifetime.end.p0(i64 4, ptr nonnull %6) #13
  ret i32 %.0
}